Certificate:
    Data:
        Version: 3 (0x2)
        Serial Number:
            0f:a5:f4:86:91:0d:e7:ca:08:47:3d:ef:e0:7c:af:08
        Signature Algorithm: sha256WithRSAEncryption
        Issuer: CN=user1
        Validity
            Not Before: Mar 25 13:08:25 2025 GMT
            Not After : Jun 28 13:08:25 2027 GMT
        Subject: CN=127.0.0.1
        Subject Public Key Info:
            Public Key Algorithm: rsaEncryption
                RSA Public-Key: (2048 bit)
                Modulus:
                    00:c5:9f:57:14:b1:6c:f5:b2:53:4a:a1:ed:a4:0a:
                    88:e1:63:26:31:d3:10:52:f6:45:75:fc:10:4d:19:
                    6d:3f:0d:ee:a9:26:ce:eb:79:1e:06:ba:61:84:95:
                    7e:01:fc:e4:cf:51:dd:e4:5e:33:7e:7e:72:a9:a8:
                    dc:aa:5f:ef:25:82:ee:5e:9d:98:b5:73:fd:6d:42:
                    8d:da:8c:3d:b5:15:37:c5:dc:f0:62:9f:08:d5:6a:
                    8f:ec:00:ba:a3:3e:e7:e4:02:3c:6b:43:23:d3:cc:
                    41:97:25:9b:42:0f:92:61:dd:db:7e:a1:bc:ca:7d:
                    e0:9e:27:d9:b2:63:53:35:a6:b2:be:7a:d0:93:01:
                    eb:67:e7:a0:d7:40:25:e9:2f:2a:04:6c:04:c7:e6:
                    bf:80:fb:89:94:a8:24:ed:0c:31:7e:05:76:11:ea:
                    1e:b1:29:52:b5:40:e3:a4:8a:9d:8f:6e:59:4f:44:
                    83:1e:23:5b:57:86:13:c4:87:05:99:c9:bf:31:b8:
                    25:be:95:c5:39:45:21:66:21:a6:91:5f:9e:7e:18:
                    11:c6:16:c0:29:e5:5f:d8:04:14:62:17:11:eb:4e:
                    84:03:50:a9:c8:d5:e2:f6:02:02:46:04:6d:42:79:
                    6d:f6:21:00:3c:f7:06:1e:5a:38:1e:c5:79:a2:38:
                    7c:af
                Exponent: 65537 (0x10001)
        X509v3 extensions:
            X509v3 Basic Constraints: 
                CA:FALSE
            X509v3 Subject Key Identifier: 
                90:2F:88:8E:88:1D:5F:70:80:A6:DA:54:CA:9C:38:60:BE:AA:01:4D
            X509v3 Authority Key Identifier: 
                keyid:59:51:1E:85:D5:D5:8E:EC:79:D7:85:BA:9E:4B:A8:8C:6D:06:DD:48
                DirName:/CN=user1
                serial:4C:E5:98:CD:37:CF:7A:2C:5D:C5:36:DA:A6:0E:F7:0C:D7:4D:93:10

            X509v3 Extended Key Usage: 
                TLS Web Server Authentication
            X509v3 Key Usage: 
                Digital Signature, Key Encipherment
            X509v3 Subject Alternative Name: 
                IP Address:127.0.0.1
    Signature Algorithm: sha256WithRSAEncryption
         26:b9:e9:08:f3:c9:7a:2b:a2:35:ae:47:5f:0f:4a:da:f1:fa:
         12:9d:2e:97:54:6a:d5:92:17:55:09:a5:6b:48:41:4f:cd:7a:
         1c:21:d1:47:02:f8:71:de:47:b9:b2:28:39:30:10:00:01:2f:
         e2:14:38:c1:43:fb:9d:b4:e3:74:97:d2:a2:92:38:a6:0f:c9:
         0a:85:fd:79:4a:72:df:e4:eb:dd:ff:49:eb:17:13:09:42:05:
         fc:a4:01:b5:a4:29:b4:b9:a2:4a:4d:5f:c3:3f:23:a6:d6:e2:
         0e:a7:5e:77:a3:a9:e6:cc:f4:5e:f8:ea:6d:48:24:91:d4:14:
         db:70:93:16:a3:ea:21:47:01:6b:e9:19:7e:3d:f1:50:c6:88:
         9b:28:fc:45:80:df:02:1c:68:b8:97:47:8d:4c:63:7c:c9:a2:
         ed:b9:0c:16:b2:21:4c:88:2d:93:5e:40:1d:9e:55:4b:21:34:
         59:34:d2:16:08:06:e5:1b:9c:cd:fb:02:f5:c9:2e:6f:05:d4:
         fe:65:29:a0:3d:f3:4b:a1:28:75:b6:7e:a6:45:78:d6:64:69:
         4b:72:33:2c:a1:90:c1:cc:d8:99:f5:22:e7:94:ea:51:94:9b:
         0b:63:22:74:56:cc:4e:19:43:bb:88:51:a3:f2:06:1a:eb:13:
         fa:b1:dc:e4
-----BEGIN CERTIFICATE-----
MIIDXDCCAkSgAwIBAgIQD6X0hpEN58oIRz3v4HyvCDANBgkqhkiG9w0BAQsFADAQ
MQ4wDAYDVQQDDAV1c2VyMTAeFw0yNTAzMjUxMzA4MjVaFw0yNzA2MjgxMzA4MjVa
MBQxEjAQBgNVBAMMCTEyNy4wLjAuMTCCASIwDQYJKoZIhvcNAQEBBQADggEPADCC
AQoCggEBAMWfVxSxbPWyU0qh7aQKiOFjJjHTEFL2RXX8EE0ZbT8N7qkmzut5Hga6
YYSVfgH85M9R3eReM35+cqmo3Kpf7yWC7l6dmLVz/W1CjdqMPbUVN8Xc8GKfCNVq
j+wAuqM+5+QCPGtDI9PMQZclm0IPkmHd236hvMp94J4n2bJjUzWmsr560JMB62fn
oNdAJekvKgRsBMfmv4D7iZSoJO0MMX4FdhHqHrEpUrVA46SKnY9uWU9Egx4jW1eG
E8SHBZnJvzG4Jb6VxTlFIWYhppFfnn4YEcYWwCnlX9gEFGIXEetOhANQqcjV4vYC
AkYEbUJ5bfYhADz3Bh5aOB7FeaI4fK8CAwEAAaOBrTCBqjAJBgNVHRMEAjAAMB0G
A1UdDgQWBBSQL4iOiB1fcICm2lTKnDhgvqoBTTBLBgNVHSMERDBCgBRZUR6F1dWO
7HnXhbqeS6iMbQbdSKEUpBIwEDEOMAwGA1UEAwwFdXNlcjGCFEzlmM03z3osXcU2
2qYO9wzXTZMQMBMGA1UdJQQMMAoGCCsGAQUFBwMBMAsGA1UdDwQEAwIFoDAPBgNV
HREECDAGhwR/AAABMA0GCSqGSIb3DQEBCwUAA4IBAQAmuekI88l6K6I1rkdfD0ra
8foSnS6XVGrVkhdVCaVrSEFPzXocIdFHAvhx3ke5sig5MBAAAS/iFDjBQ/udtON0
l9KikjimD8kKhf15SnLf5Ovd/0nrFxMJQgX8pAG1pCm0uaJKTV/DPyOm1uIOp153
o6nmzPRe+OptSCSR1BTbcJMWo+ohRwFr6Rl+PfFQxoibKPxFgN8CHGi4l0eNTGN8
yaLtuQwWsiFMiC2TXkAdnlVLITRZNNIWCAblG5zN+wL1yS5vBdT+ZSmgPfNLoSh1
tn6mRXjWZGlLcjMsoZDBzNiZ9SLnlOpRlJsLYyJ0VsxOGUO7iFGj8gYa6xP6sdzk
-----END CERTIFICATE-----
